; Function Attrs: mustprogress uwtable
define noundef ptr @_ZN6icu_778Collator19getAvailableLocalesEv() local_unnamed_addr #5 align 2 personality ptr @__gxx_personality_v0 {
  %1 = alloca i32, align 4
  %2 = load atomic i32, ptr @_ZL16gServiceInitOnce acquire, align 4
  %.not.i = icmp eq i32 %2, 0
  br i1 %.not.i, label %_ZN6icu_77L10hasServiceEv.exit.thread, label %3

3:                                                ; preds = %0
  %4 = load atomic i32, ptr @_ZL16gServiceInitOnce acquire, align 4
  %5 = icmp eq i32 %4, 2
  br i1 %5, label %_ZN6icu_77L10hasServiceEv.exit, label %6

6:                                                ; preds = %3
  %7 = tail call noundef signext i8 @_ZN6icu_7720umtx_initImplPreInitERNS_9UInitOnceE(ptr noundef nonnull align 4 dereferenceable(8) @_ZL16gServiceInitOnce)
  %.not.i.i.i = icmp eq i8 %7, 0
  br i1 %.not.i.i.i, label %_ZN6icu_77L10hasServiceEv.exit, label %8

8:                                                ; preds = %6
  %9 = tail call noundef ptr @_ZN6icu_777UMemorynwEm(i64 noundef 408) #16
  %10 = icmp eq ptr %9, null
  br i1 %10, label %_ZN6icu_77L11initServiceEv.exit.i.i, label %11

11:                                               ; preds = %8
  invoke void @_ZN6icu_7718ICUCollatorServiceC2Ev(ptr noundef nonnull align 8 dereferenceable(408) %9)
          to label %_ZN6icu_77L11initServiceEv.exit.i.i unwind label %12

common.resume:                                    ; preds = %37, %24, %12
  %common.resume.op = phi { ptr, i32 } [ %13, %12 ], [ %25, %24 ], [ %38, %37 ]
  resume { ptr, i32 } %common.resume.op

12:                                               ; preds = %11
  %13 = landingpad { ptr, i32 }
          cleanup
  tail call void @_ZN6icu_777UMemorydlEPv(ptr noundef nonnull %9) #16
  br label %common.resume

_ZN6icu_77L11initServiceEv.exit.i.i:              ; preds = %11, %8
  store ptr %9, ptr @_ZL8gService, align 8, !tbaa !15
  tail call void @ucln_i18n_registerCleanup_77(i32 noundef 28, ptr noundef nonnull @_ZL16collator_cleanupv)
  tail call void @_ZN6icu_7721umtx_initImplPostInitERNS_9UInitOnceE(ptr noundef nonnull align 4 dereferenceable(8) @_ZL16gServiceInitOnce)
  br label %_ZN6icu_77L10hasServiceEv.exit

_ZN6icu_77L10hasServiceEv.exit:                   ; preds = %3, %6, %_ZN6icu_77L11initServiceEv.exit.i.i
  %14 = load ptr, ptr @_ZL8gService, align 8, !tbaa !15
  %.not7 = icmp eq ptr %14, null
  br i1 %.not7, label %_ZN6icu_77L10hasServiceEv.exit.thread, label %15

15:                                               ; preds = %_ZN6icu_77L10hasServiceEv.exit
  %16 = load atomic i32, ptr @_ZL16gServiceInitOnce acquire, align 4
  %17 = icmp eq i32 %16, 2
  br i1 %17, label %_ZN6icu_77L10getServiceEv.exit, label %18

18:                                               ; preds = %15
  %19 = tail call noundef signext i8 @_ZN6icu_7720umtx_initImplPreInitERNS_9UInitOnceE(ptr noundef nonnull align 4 dereferenceable(8) @_ZL16gServiceInitOnce)
  %.not.i.i = icmp eq i8 %19, 0
  br i1 %.not.i.i, label %_ZN6icu_77L10getServiceEv.exit, label %20

20:                                               ; preds = %18
  %21 = tail call noundef ptr @_ZN6icu_777UMemorynwEm(i64 noundef 408) #16
  %22 = icmp eq ptr %21, null
  br i1 %22, label %_ZN6icu_77L11initServiceEv.exit.i, label %23

23:                                               ; preds = %20
  invoke void @_ZN6icu_7718ICUCollatorServiceC2Ev(ptr noundef nonnull align 8 dereferenceable(408) %21)
          to label %_ZN6icu_77L11initServiceEv.exit.i unwind label %24

24:                                               ; preds = %23
  %25 = landingpad { ptr, i32 }
          cleanup
  tail call void @_ZN6icu_777UMemorydlEPv(ptr noundef nonnull %21) #16
  br label %common.resume

_ZN6icu_77L11initServiceEv.exit.i:                ; preds = %23, %20
  store ptr %21, ptr @_ZL8gService, align 8, !tbaa !15
  tail call void @ucln_i18n_registerCleanup_77(i32 noundef 28, ptr noundef nonnull @_ZL16collator_cleanupv)
  tail call void @_ZN6icu_7721umtx_initImplPostInitERNS_9UInitOnceE(ptr noundef nonnull align 4 dereferenceable(8) @_ZL16gServiceInitOnce)
  br label %_ZN6icu_77L10getServiceEv.exit

_ZN6icu_77L10getServiceEv.exit:                   ; preds = %15, %18, %_ZN6icu_77L11initServiceEv.exit.i
  %26 = load ptr, ptr @_ZL8gService, align 8, !tbaa !15
  %27 = load ptr, ptr %26, align 8, !tbaa !3
  %28 = getelementptr inbounds nuw i8, ptr %27, i64 176
  %29 = load ptr, ptr %28, align 8
  %30 = tail call noundef ptr %29(ptr noundef nonnull align 8 dereferenceable(408) %26)
  br label %40

_ZN6icu_77L10hasServiceEv.exit.thread:            ; preds = %0, %_ZN6icu_77L10hasServiceEv.exit
  call void @llvm.lifetime.start.p0(i64 4, ptr nonnull %1) #16
  store i32 0, ptr %1, align 4, !tbaa !6
  %31 = call fastcc noundef signext i8 @_ZN6icu_77L32isAvailableLocaleListInitializedER10UErrorCode(ptr noundef nonnull align 4 dereferenceable(4) %1)
  %.not5 = icmp eq i8 %31, 0
  br i1 %.not5, label %39, label %32

32:                                               ; preds = %_ZN6icu_77L10hasServiceEv.exit.thread
  %33 = call noundef ptr @_ZN6icu_777UMemorynwEm(i64 noundef 120) #16
  %34 = icmp eq ptr %33, null
  br i1 %34, label %39, label %35

35:                                               ; preds = %32
  invoke void @_ZN6icu_7717StringEnumerationC2Ev(ptr noundef nonnull align 8 dereferenceable(120) %33)
          to label %_ZN6icu_7730CollationLocaleListEnumerationC2Ev.exit unwind label %37

_ZN6icu_7730CollationLocaleListEnumerationC2Ev.exit: ; preds = %35
  store ptr getelementptr inbounds nuw inrange(-16, 88) (i8, ptr @_ZTVN6icu_7730CollationLocaleListEnumerationE, i64 16), ptr %33, align 8, !tbaa !3
  %36 = getelementptr inbounds nuw i8, ptr %33, i64 116
  store i32 0, ptr %36, align 4, !tbaa !63
  br label %39

37:                                               ; preds = %35
  %38 = landingpad { ptr, i32 }
          cleanup
  call void @_ZN6icu_777UMemorydlEPv(ptr noundef nonnull %33) #16
  call void @llvm.lifetime.end.p0(i64 4, ptr nonnull %1) #16
  br label %common.resume

39:                                               ; preds = %_ZN6icu_7730CollationLocaleListEnumerationC2Ev.exit, %_ZN6icu_77L10hasServiceEv.exit.thread, %32
  %.1 = phi ptr [ null, %32 ], [ %33, %_ZN6icu_7730CollationLocaleListEnumerationC2Ev.exit ], [ null, %_ZN6icu_77L10hasServiceEv.exit.thread ]
  call void @llvm.lifetime.end.p0(i64 4, ptr nonnull %1) #16
  br label %40

40:                                               ; preds = %39, %_ZN6icu_77L10getServiceEv.exit
  %.0 = phi ptr [ %30, %_ZN6icu_77L10getServiceEv.exit ], [ %.1, %39 ]
  ret ptr %.0
}